; Function Attrs: mustprogress nounwind uwtable
define hidden noundef ptr @_ZN16XObjectAllocator10alloc_pageEhm16XAllocationFlags(ptr nocapture noundef nonnull readonly align 8 dereferenceable(56) %0, i8 noundef zeroext %1, i64 noundef %2, i8 %3) local_unnamed_addr #1 align 2 {
  %5 = load ptr, ptr @_ZN5XHeap5_heapE, align 8
  %6 = tail call noundef ptr @_ZN5XHeap10alloc_pageEhm16XAllocationFlags(ptr noundef nonnull align 64 dereferenceable(4088) %5, i8 noundef zeroext %1, i64 noundef %2, i8 %3) #7
  %.not = icmp eq ptr %6, null
  br i1 %.not, label %25, label %7

7:                                                ; preds = %4
  %8 = getelementptr inbounds i8, ptr %0, i64 8
  %9 = load ptr, ptr @_ZN4XCPU9_affinityE, align 8
  %10 = tail call align 4 ptr @llvm.threadlocal.address.p0(ptr align 4 @_ZN4XCPU4_cpuE)
  %11 = load i32, ptr %10, align 4
  %12 = zext i32 %11 to i64
  %13 = getelementptr inbounds %class.PaddedEnd, ptr %9, i64 %12
  %14 = load ptr, ptr %13, align 8
  %15 = tail call align 8 ptr @llvm.threadlocal.address.p0(ptr align 8 @_ZN4XCPU5_selfE)
  %16 = load ptr, ptr %15, align 8
  %17 = icmp eq ptr %14, %16
  br i1 %17, label %_ZN14XPerCPUStorage2idEv.exit, label %18

18:                                               ; preds = %7
  %19 = tail call noundef i32 @_ZN4XCPU7id_slowEv() #7
  %.pre = zext i32 %19 to i64
  br label %_ZN14XPerCPUStorage2idEv.exit

_ZN14XPerCPUStorage2idEv.exit:                    ; preds = %7, %18
  %.pre-phi = phi i64 [ %12, %7 ], [ %.pre, %18 ]
  %20 = load i64, ptr %8, align 8
  %21 = shl nuw nsw i64 %.pre-phi, 12
  %22 = add i64 %21, %20
  %23 = inttoptr i64 %22 to ptr
  %24 = tail call noundef i64 asm sideeffect "lock xaddq $0,($2)", "=r,0,r,~{cc},~{memory},~{dirflag},~{fpsr},~{flags}"(i64 %2, ptr %23) #7, !srcloc !9
  br label %25

25:                                               ; preds = %_ZN14XPerCPUStorage2idEv.exit, %4
  ret ptr %6
}